; ModuleID = '40/1588.c'
source_filename = "40/1588.c"
target datalayout = "e-m:e-p270:32:32-p271:32:32-p272:64:64-i64:64-f80:128-n8:16:32:64-S128"
target triple = "x86_64-pc-linux-gnu"

@.str = private unnamed_addr constant [16 x i8] c"%lf%lf%lf%lf%lf\00", align 1
@.str.1 = private unnamed_addr constant [14 x i8] c"Invalid input\00", align 1
@.str.2 = private unnamed_addr constant [6 x i8] c"%.4lf\00", align 1

; Function Attrs: noinline nounwind uwtable
define dso_local double @square(double %0, double %1, double %2, double %3, double %4) #0 {
  %6 = alloca double, align 8
  %7 = alloca double, align 8
  %8 = alloca double, align 8
  %9 = alloca double, align 8
  %10 = alloca double, align 8
  %11 = alloca double, align 8
  %12 = alloca double, align 8
  %13 = alloca double, align 8
  %14 = alloca double, align 8
  store double %0, double* %7, align 8
  store double %1, double* %8, align 8
  store double %2, double* %9, align 8
  store double %3, double* %10, align 8
  store double %4, double* %11, align 8
  %15 = load double, double* %7, align 8
  %16 = load double, double* %8, align 8
  %17 = fadd double %15, %16
  %18 = load double, double* %9, align 8
  %19 = fadd double %17, %18
  %20 = load double, double* %10, align 8
  %21 = fadd double %19, %20
  %22 = fdiv double %21, 2.000000e+00
  store double %22, double* %12, align 8
  %23 = load double, double* %11, align 8
  %24 = fdiv double %23, 2.000000e+00
  %25 = call double @cos(double %24) #3
  %26 = load double, double* %11, align 8
  %27 = fdiv double %26, 2.000000e+00
  %28 = call double @cos(double %27) #3
  %29 = fmul double %25, %28
  store double %29, double* %13, align 8
  %30 = load double, double* %12, align 8
  %31 = load double, double* %7, align 8
  %32 = fsub double %30, %31
  %33 = load double, double* %12, align 8
  %34 = load double, double* %8, align 8
  %35 = fsub double %33, %34
  %36 = fmul double %32, %35
  %37 = load double, double* %12, align 8
  %38 = load double, double* %9, align 8
  %39 = fsub double %37, %38
  %40 = fmul double %36, %39
  %41 = load double, double* %12, align 8
  %42 = load double, double* %10, align 8
  %43 = fsub double %41, %42
  %44 = fmul double %40, %43
  %45 = load double, double* %7, align 8
  %46 = load double, double* %8, align 8
  %47 = fmul double %45, %46
  %48 = load double, double* %9, align 8
  %49 = fmul double %47, %48
  %50 = load double, double* %10, align 8
  %51 = fmul double %49, %50
  %52 = load double, double* %13, align 8
  %53 = fmul double %51, %52
  %54 = fsub double %44, %53
  %55 = fcmp olt double %54, 0.000000e+00
  br i1 %55, label %56, label %57

56:                                               ; preds = %5
  store double 0.000000e+00, double* %6, align 8
  br label %85

57:                                               ; preds = %5
  %58 = load double, double* %12, align 8
  %59 = load double, double* %7, align 8
  %60 = fsub double %58, %59
  %61 = load double, double* %12, align 8
  %62 = load double, double* %8, align 8
  %63 = fsub double %61, %62
  %64 = fmul double %60, %63
  %65 = load double, double* %12, align 8
  %66 = load double, double* %9, align 8
  %67 = fsub double %65, %66
  %68 = fmul double %64, %67
  %69 = load double, double* %12, align 8
  %70 = load double, double* %10, align 8
  %71 = fsub double %69, %70
  %72 = fmul double %68, %71
  %73 = load double, double* %7, align 8
  %74 = load double, double* %8, align 8
  %75 = fmul double %73, %74
  %76 = load double, double* %9, align 8
  %77 = fmul double %75, %76
  %78 = load double, double* %10, align 8
  %79 = fmul double %77, %78
  %80 = load double, double* %13, align 8
  %81 = fmul double %79, %80
  %82 = fsub double %72, %81
  %83 = call double @sqrt(double %82) #3
  store double %83, double* %14, align 8
  %84 = load double, double* %14, align 8
  store double %84, double* %6, align 8
  br label %85

85:                                               ; preds = %57, %56
  %86 = load double, double* %6, align 8
  ret double %86
}

; Function Attrs: nounwind
declare dso_local double @cos(double) #1

; Function Attrs: nounwind
declare dso_local double @sqrt(double) #1

; Function Attrs: noinline nounwind uwtable
define dso_local void @main() #0 {
  %1 = alloca double, align 8
  %2 = alloca double, align 8
  %3 = alloca double, align 8
  %4 = alloca double, align 8
  %5 = alloca double, align 8
  %6 = alloca double, align 8
  %7 = call i32 (i8*, ...) @__isoc99_scanf(i8* getelementptr inbounds ([16 x i8], [16 x i8]* @.str, i64 0, i64 0), double* %2, double* %3, double* %4, double* %5, double* %6)
  %8 = load double, double* %6, align 8
  %9 = fdiv double %8, 3.600000e+02
  %10 = fmul double %9, 2.000000e+00
  %11 = fmul double %10, 0x400921FB4D12D84A
  store double %11, double* %6, align 8
  %12 = load double, double* %2, align 8
  %13 = load double, double* %3, align 8
  %14 = load double, double* %4, align 8
  %15 = load double, double* %5, align 8
  %16 = load double, double* %6, align 8
  %17 = call double @square(double %12, double %13, double %14, double %15, double %16)
  store double %17, double* %1, align 8
  %18 = load double, double* %1, align 8
  %19 = fcmp oeq double %18, 0.000000e+00
  br i1 %19, label %20, label %22

20:                                               ; preds = %0
  %21 = call i32 (i8*, ...) @printf(i8* getelementptr inbounds ([14 x i8], [14 x i8]* @.str.1, i64 0, i64 0))
  br label %25

22:                                               ; preds = %0
  %23 = load double, double* %1, align 8
  %24 = call i32 (i8*, ...) @printf(i8* getelementptr inbounds ([6 x i8], [6 x i8]* @.str.2, i64 0, i64 0), double %23)
  br label %25

25:                                               ; preds = %22, %20
  ret void
}

declare dso_local i32 @__isoc99_scanf(i8*, ...) #2

declare dso_local i32 @printf(i8*, ...) #2


!llvm.module.flags = !{!0}
!llvm.ident = !{!1}

!0 = !{i32 1, !"wchar_size", i32 4}
!1 = !{!"clang version 10.0.0-4ubuntu1 "}
